; ModuleID = 'bench/boost/original/test_framework_init_observer.ll'
source_filename = "bench/boost/original/test_framework_init_observer.ll"
target datalayout = "e-m:e-p270:32:32-p271:32:32-p272:64:64-i64:64-i128:128-f80:128-n8:16:32:64-S128"
target triple = "x86_64-pc-linux-gnu"

$_ZN5boost9unit_test13test_observer11test_finishEv = comdat any

$_ZN5boost9unit_test13test_observer15test_unit_startERKNS0_9test_unitE = comdat any

$_ZN5boost9unit_test13test_observer16test_unit_finishERKNS0_9test_unitEm = comdat any

$_ZN5boost9unit_test13test_observer17test_unit_skippedERKNS0_9test_unitENS0_13basic_cstringIKcEE = comdat any

$_ZN5boost9unit_test13test_observer17test_unit_skippedERKNS0_9test_unitE = comdat any

$_ZN5boost9unit_test13test_observer19test_unit_timed_outERKNS0_9test_unitE = comdat any

$_ZN5boost9unit_test13test_observer17test_unit_abortedERKNS0_9test_unitE = comdat any

$_ZN5boost9unit_test25framework_init_observer_t8priorityEv = comdat any

$_ZN5boost9unit_test13test_observerD2Ev = comdat any

$_ZN5boost9unit_test25framework_init_observer_tD0Ev = comdat any

$_ZTIN5boost9unit_test13test_observerE = comdat any

$_ZTSN5boost9unit_test13test_observerE = comdat any

@_ZTVN5boost9unit_test25framework_init_observer_tE = unnamed_addr constant { [16 x ptr] } { [16 x ptr] [ptr null, ptr @_ZTIN5boost9unit_test25framework_init_observer_tE, ptr @_ZN5boost9unit_test25framework_init_observer_t10test_startEmm, ptr @_ZN5boost9unit_test13test_observer11test_finishEv, ptr @_ZN5boost9unit_test25framework_init_observer_t12test_abortedEv, ptr @_ZN5boost9unit_test13test_observer15test_unit_startERKNS0_9test_unitE, ptr @_ZN5boost9unit_test13test_observer16test_unit_finishERKNS0_9test_unitEm, ptr @_ZN5boost9unit_test13test_observer17test_unit_skippedERKNS0_9test_unitENS0_13basic_cstringIKcEE, ptr @_ZN5boost9unit_test13test_observer17test_unit_skippedERKNS0_9test_unitE, ptr @_ZN5boost9unit_test13test_observer19test_unit_timed_outERKNS0_9test_unitE, ptr @_ZN5boost9unit_test13test_observer17test_unit_abortedERKNS0_9test_unitE, ptr @_ZN5boost9unit_test25framework_init_observer_t16assertion_resultENS0_16assertion_resultE, ptr @_ZN5boost9unit_test25framework_init_observer_t16exception_caughtERKNS_19execution_exceptionE, ptr @_ZN5boost9unit_test25framework_init_observer_t8priorityEv, ptr @_ZN5boost9unit_test13test_observerD2Ev, ptr @_ZN5boost9unit_test25framework_init_observer_tD0Ev] }, align 8
@_ZTIN5boost9unit_test25framework_init_observer_tE = constant { ptr, ptr, ptr } { ptr getelementptr inbounds (ptr, ptr @_ZTVN10__cxxabiv120__si_class_type_infoE, i64 2), ptr @_ZTSN5boost9unit_test25framework_init_observer_tE, ptr @_ZTIN5boost9unit_test13test_observerE }, align 8
@_ZTVN10__cxxabiv120__si_class_type_infoE = external global [0 x ptr]
@_ZTSN5boost9unit_test25framework_init_observer_tE = constant [46 x i8] c"N5boost9unit_test25framework_init_observer_tE\00", align 1
@_ZTIN5boost9unit_test13test_observerE = linkonce_odr constant { ptr, ptr } { ptr getelementptr inbounds (ptr, ptr @_ZTVN10__cxxabiv117__class_type_infoE, i64 2), ptr @_ZTSN5boost9unit_test13test_observerE }, comdat, align 8
@_ZTVN10__cxxabiv117__class_type_infoE = external global [0 x ptr]
@_ZTSN5boost9unit_test13test_observerE = linkonce_odr constant [34 x i8] c"N5boost9unit_test13test_observerE\00", comdat, align 1

; Function Attrs: mustprogress nofree norecurse nosync nounwind willreturn memory(argmem: write) uwtable
define void @_ZN5boost9unit_test25framework_init_observer_t5clearEv(ptr nocapture noundef nonnull writeonly align 8 dereferenceable(9) %0) local_unnamed_addr #0 align 2 {
  %2 = getelementptr inbounds nuw i8, ptr %0, i64 8
  store i8 0, ptr %2, align 8, !tbaa !3
  ret void
}

; Function Attrs: mustprogress nofree norecurse nosync nounwind willreturn memory(argmem: write) uwtable
define void @_ZN5boost9unit_test25framework_init_observer_t10test_startEmm(ptr nocapture noundef nonnull writeonly align 8 dereferenceable(9) %0, i64 %1, i64 %2) unnamed_addr #0 align 2 {
  %4 = getelementptr inbounds nuw i8, ptr %0, i64 8
  store i8 0, ptr %4, align 8, !tbaa !3
  ret void
}

; Function Attrs: mustprogress nofree norecurse nosync nounwind willreturn memory(argmem: write) uwtable
define void @_ZN5boost9unit_test25framework_init_observer_t16assertion_resultENS0_16assertion_resultE(ptr nocapture noundef nonnull writeonly align 8 dereferenceable(9) %0, i32 noundef %1) unnamed_addr #0 align 2 {
  %cond = icmp eq i32 %1, 0
  br i1 %cond, label %3, label %5

3:                                                ; preds = %2
  %4 = getelementptr inbounds nuw i8, ptr %0, i64 8
  store i8 1, ptr %4, align 8, !tbaa !3
  br label %5

5:                                                ; preds = %2, %3
  ret void
}

; Function Attrs: mustprogress nofree norecurse nosync nounwind willreturn memory(argmem: write) uwtable
define void @_ZN5boost9unit_test25framework_init_observer_t16exception_caughtERKNS_19execution_exceptionE(ptr nocapture noundef nonnull writeonly align 8 dereferenceable(9) %0, ptr nocapture nonnull readnone align 1 %1) unnamed_addr #0 align 2 {
  %3 = getelementptr inbounds nuw i8, ptr %0, i64 8
  store i8 1, ptr %3, align 8, !tbaa !3
  ret void
}

; Function Attrs: mustprogress nofree norecurse nosync nounwind willreturn memory(argmem: write) uwtable
define void @_ZN5boost9unit_test25framework_init_observer_t12test_abortedEv(ptr nocapture noundef nonnull writeonly align 8 dereferenceable(9) %0) unnamed_addr #0 align 2 {
  %2 = getelementptr inbounds nuw i8, ptr %0, i64 8
  store i8 1, ptr %2, align 8, !tbaa !3
  ret void
}

; Function Attrs: mustprogress nofree norecurse nosync nounwind willreturn memory(argmem: read) uwtable
define noundef zeroext i1 @_ZNK5boost9unit_test25framework_init_observer_t10has_failedEv(ptr nocapture noundef nonnull readonly align 8 dereferenceable(9) %0) local_unnamed_addr #1 align 2 {
  %2 = getelementptr inbounds nuw i8, ptr %0, i64 8
  %3 = load i8, ptr %2, align 8, !tbaa !3, !range !9, !noundef !10
  %4 = trunc nuw i8 %3 to i1
  ret i1 %4
}

; Function Attrs: mustprogress nounwind uwtable
define linkonce_odr hidden void @_ZN5boost9unit_test13test_observer11test_finishEv(ptr noundef nonnull align 8 dereferenceable(8) %0) unnamed_addr #2 comdat align 2 {
  ret void
}

; Function Attrs: mustprogress nounwind uwtable
define linkonce_odr hidden void @_ZN5boost9unit_test13test_observer15test_unit_startERKNS0_9test_unitE(ptr noundef nonnull align 8 dereferenceable(8) %0, ptr noundef nonnull align 1 %1) unnamed_addr #2 comdat align 2 {
  ret void
}

; Function Attrs: mustprogress nounwind uwtable
define linkonce_odr hidden void @_ZN5boost9unit_test13test_observer16test_unit_finishERKNS0_9test_unitEm(ptr noundef nonnull align 8 dereferenceable(8) %0, ptr noundef nonnull align 1 %1, i64 noundef %2) unnamed_addr #2 comdat align 2 {
  ret void
}

; Function Attrs: mustprogress uwtable
define linkonce_odr hidden void @_ZN5boost9unit_test13test_observer17test_unit_skippedERKNS0_9test_unitENS0_13basic_cstringIKcEE(ptr noundef nonnull align 8 dereferenceable(8) %0, ptr noundef nonnull align 1 %1, ptr noundef %2) unnamed_addr #3 comdat align 2 {
  %4 = load ptr, ptr %0, align 8, !tbaa !11
  %5 = getelementptr inbounds i8, ptr %4, i64 48
  %6 = load ptr, ptr %5, align 8
  tail call void %6(ptr noundef nonnull align 8 dereferenceable(8) %0, ptr noundef nonnull align 1 %1)
  ret void
}

; Function Attrs: mustprogress nounwind uwtable
define linkonce_odr hidden void @_ZN5boost9unit_test13test_observer17test_unit_skippedERKNS0_9test_unitE(ptr noundef nonnull align 8 dereferenceable(8) %0, ptr noundef nonnull align 1 %1) unnamed_addr #2 comdat align 2 {
  ret void
}

; Function Attrs: mustprogress nounwind uwtable
define linkonce_odr hidden void @_ZN5boost9unit_test13test_observer19test_unit_timed_outERKNS0_9test_unitE(ptr noundef nonnull align 8 dereferenceable(8) %0, ptr noundef nonnull align 1 %1) unnamed_addr #2 comdat align 2 {
  ret void
}

; Function Attrs: mustprogress nounwind uwtable
define linkonce_odr hidden void @_ZN5boost9unit_test13test_observer17test_unit_abortedERKNS0_9test_unitE(ptr noundef nonnull align 8 dereferenceable(8) %0, ptr noundef nonnull align 1 %1) unnamed_addr #2 comdat align 2 {
  ret void
}

; Function Attrs: mustprogress nounwind uwtable
define linkonce_odr hidden noundef i32 @_ZN5boost9unit_test25framework_init_observer_t8priorityEv(ptr noundef nonnull align 8 dereferenceable(9) %0) unnamed_addr #2 comdat align 2 {
  ret i32 0
}

; Function Attrs: mustprogress nounwind uwtable
define linkonce_odr hidden void @_ZN5boost9unit_test13test_observerD2Ev(ptr noundef nonnull align 8 dereferenceable(8) %0) unnamed_addr #2 comdat align 2 {
  ret void
}

; Function Attrs: inlinehint mustprogress nounwind uwtable
define linkonce_odr hidden void @_ZN5boost9unit_test25framework_init_observer_tD0Ev(ptr noundef nonnull align 8 dereferenceable(9) %0) unnamed_addr #4 comdat align 2 {
  tail call void @_ZdlPvm(ptr noundef nonnull %0, i64 noundef 16) #6
  ret void
}

; Function Attrs: nobuiltin nounwind
declare void @_ZdlPvm(ptr noundef, i64 noundef) local_unnamed_addr #5


!llvm.module.flags = !{!0, !1, !2}

!0 = !{i32 1, !"wchar_size", i32 4}
!1 = !{i32 8, !"PIC Level", i32 2}
!2 = !{i32 7, !"uwtable", i32 2}
!3 = !{!4, !6, i64 8}
!4 = !{!"_ZTSN5boost9unit_test25framework_init_observer_tE", !5, i64 0, !6, i64 8}
!5 = !{!"_ZTSN5boost9unit_test13test_observerE"}
!6 = !{!"bool", !7, i64 0}
!7 = !{!"omnipotent char", !8, i64 0}
!8 = !{!"Simple C++ TBAA"}
!9 = !{i8 0, i8 2}
!10 = !{}
!11 = !{!12, !12, i64 0}
!12 = !{!"vtable pointer", !8, i64 0}
